target datalayout = "e-m:e-p270:32:32-p271:32:32-p272:64:64-i64:64-i128:128-f80:128-n8:16:32:64-S128"
target triple = "x86_64-pc-linux-gnu"

%class.RangeCoder = type { i32, i32, i32, %"struct.RangeCoder::SUBRANGE", ptr }
%"struct.RangeCoder::SUBRANGE" = type { i32, i32, i32 }
%class.SubAllocator = type { i64, [38 x i8], [128 x i8], i8, ptr, ptr, ptr, [38 x %"struct.SubAllocator::RAR_NODE"], ptr, ptr, ptr, ptr }
%"struct.SubAllocator::RAR_NODE" = type { ptr }
%class.ModelPPM = type <{ i8, [25 x [16 x %struct.RARPPM_SEE2_CONTEXT]], %struct.RARPPM_SEE2_CONTEXT, [3 x i8], ptr, ptr, ptr, ptr, i32, i32, i32, i32, i32, i32, [256 x i8], [256 x i8], [256 x i8], [256 x i8], i8, i8, i8, i8, [128 x [64 x i16]], [4 x i8], %class.RangeCoder, %class.SubAllocator }>
%struct.RARPPM_SEE2_CONTEXT = type { i16, i8, i8 }
%class.Unpack = type { ptr, %class.BitInput, %class.Array, %class.Array, %class.Array.0, [4 x i32], i32, i32, i32, i64, i64, i32, i32, %struct.UnpackBlockHeader, %struct.UnpackBlockTables, i64, ptr, %class.FragmentedWindow, i8, i64, i8, i8, i8, i64, i8, [256 x i16], [256 x i16], [256 x i16], [256 x i16], [256 x i8], [256 x i8], [256 x i8], i32, i32, i32, i32, i32, i32, i32, i32, i32, i32, i32, i32, i32, i32, [4 x %struct.DecodeTable], [1028 x i8], i8, i32, i32, i32, [4 x %struct.AudioVariables], i32, i32, %class.ModelPPM, i32, [404 x i8], i32, i8, i8, i8, %class.RarVM, %class.BitInput, %class.Array.1, %class.Array.1, %class.Array.2, i32, i64, i64 }
%class.Array = type { ptr, i64, i64, i64 }
%class.Array.0 = type { ptr, i64, i64, i64 }
%struct.UnpackBlockHeader = type { i32, i32, i32, i32, i8, i8 }
%struct.UnpackBlockTables = type { %struct.DecodeTable, %struct.DecodeTable, %struct.DecodeTable, %struct.DecodeTable, %struct.DecodeTable }
%struct.DecodeTable = type { i32, [16 x i32], [16 x i32], i32, [1024 x i8], [1024 x i16], [306 x i16] }
%class.FragmentedWindow = type { [32 x ptr], [32 x i64] }
%struct.AudioVariables = type { i32, i32, i32, i32, i32, i32, i32, i32, i32, i32, [11 x i32], i32, i32 }
%class.RarVM = type { ptr, [8 x i32] }
%class.BitInput = type { i32, i32, i8, ptr }
%class.Array.1 = type { ptr, i64, i64, i64 }
%class.Array.2 = type { ptr, i64, i64, i64 }

@_ZL6DecHf2 = internal global [8 x i32] [i32 4096, i32 9216, i32 32768, i32 49152, i32 64000, i32 65535, i32 65535, i32 65535], align 16
@_ZL6PosHf2 = internal global [13 x i32] [i32 0, i32 0, i32 0, i32 0, i32 0, i32 0, i32 2, i32 7, i32 53, i32 117, i32 233, i32 0, i32 0], align 16

; Function Attrs: mustprogress nounwind uwtable
define void @_ZN6Unpack8CorrHuffEPtPh(ptr noundef nonnull align 8 dereferenceable(59688) %0, ptr noundef %1, ptr noundef %2) #1 align 2 {
  %4 = alloca ptr, align 8
  %5 = alloca ptr, align 8
  %6 = alloca ptr, align 8
  %7 = alloca i32, align 4
  %8 = alloca i32, align 4
  store ptr %0, ptr %4, align 8
  store ptr %1, ptr %5, align 8
  store ptr %2, ptr %6, align 8
  store i32 7, ptr %7, align 4
  br label %9

9:                                                ; preds = %31, %3
  %10 = load i32, ptr %7, align 4
  %11 = icmp sge i32 %10, 0
  br i1 %11, label %12, label %34

12:                                               ; preds = %9
  store i32 0, ptr %8, align 4
  br label %13

13:                                               ; preds = %25, %12
  %14 = load i32, ptr %8, align 4
  %15 = icmp slt i32 %14, 32
  br i1 %15, label %16, label %30

16:                                               ; preds = %13
  %17 = load ptr, ptr %5, align 8
  %18 = load i16, ptr %17, align 2
  %19 = zext i16 %18 to i32
  %20 = and i32 %19, -256
  %21 = load i32, ptr %7, align 4
  %22 = or i32 %20, %21
  %23 = trunc i32 %22 to i16
  %24 = load ptr, ptr %5, align 8
  store i16 %23, ptr %24, align 2
  br label %25

25:                                               ; preds = %16
  %26 = load i32, ptr %8, align 4
  %27 = add nsw i32 %26, 1
  store i32 %27, ptr %8, align 4
  %28 = load ptr, ptr %5, align 8
  %29 = getelementptr inbounds i16, ptr %28, i32 1
  store ptr %29, ptr %5, align 8
  br label %13, !llvm.loop !53

30:                                               ; preds = %13
  br label %31

31:                                               ; preds = %30
  %32 = load i32, ptr %7, align 4
  %33 = add nsw i32 %32, -1
  store i32 %33, ptr %7, align 4
  br label %9, !llvm.loop !54

34:                                               ; preds = %9
  %35 = load ptr, ptr %6, align 8
  call void @llvm.memset.p0.i64(ptr align 1 %35, i8 0, i64 256, i1 false)
  store i32 6, ptr %7, align 4
  br label %36

36:                                               ; preds = %48, %34
  %37 = load i32, ptr %7, align 4
  %38 = icmp sge i32 %37, 0
  br i1 %38, label %39, label %51

39:                                               ; preds = %36
  %40 = load i32, ptr %7, align 4
  %41 = sub nsw i32 7, %40
  %42 = mul nsw i32 %41, 32
  %43 = trunc i32 %42 to i8
  %44 = load ptr, ptr %6, align 8
  %45 = load i32, ptr %7, align 4
  %46 = sext i32 %45 to i64
  %47 = getelementptr inbounds i8, ptr %44, i64 %46
  store i8 %43, ptr %47, align 1
  br label %48

48:                                               ; preds = %39
  %49 = load i32, ptr %7, align 4
  %50 = add nsw i32 %49, -1
  store i32 %50, ptr %7, align 4
  br label %36, !llvm.loop !55

51:                                               ; preds = %36
  ret void
}

; Function Attrs: mustprogress uwtable
define noundef i32 @_ZN6Unpack9DecodeNumEjjPjS0_(ptr noundef nonnull align 8 dereferenceable(59688) %0, i32 noundef %1, i32 noundef %2, ptr noundef %3, ptr noundef %4) #0 align 2 {
  %6 = alloca ptr, align 8
  %7 = alloca i32, align 4
  %8 = alloca i32, align 4
  %9 = alloca ptr, align 8
  %10 = alloca ptr, align 8
  %11 = alloca i32, align 4
  store ptr %0, ptr %6, align 8
  store i32 %1, ptr %7, align 4
  store i32 %2, ptr %8, align 4
  store ptr %3, ptr %9, align 8
  store ptr %4, ptr %10, align 8
  %12 = load ptr, ptr %6, align 8
  %13 = load i32, ptr %7, align 4
  %14 = and i32 %13, 65520
  store i32 %14, ptr %7, align 4
  store i32 0, ptr %11, align 4
  br label %15

15:                                               ; preds = %26, %5
  %16 = load ptr, ptr %9, align 8
  %17 = load i32, ptr %11, align 4
  %18 = sext i32 %17 to i64
  %19 = getelementptr inbounds i32, ptr %16, i64 %18
  %20 = load i32, ptr %19, align 4
  %21 = load i32, ptr %7, align 4
  %22 = icmp ule i32 %20, %21
  br i1 %22, label %23, label %29

23:                                               ; preds = %15
  %24 = load i32, ptr %8, align 4
  %25 = add i32 %24, 1
  store i32 %25, ptr %8, align 4
  br label %26

26:                                               ; preds = %23
  %27 = load i32, ptr %11, align 4
  %28 = add nsw i32 %27, 1
  store i32 %28, ptr %11, align 4
  br label %15, !llvm.loop !52

29:                                               ; preds = %15
  %30 = getelementptr inbounds %class.Unpack, ptr %12, i32 0, i32 1
  %31 = load i32, ptr %8, align 4
  call void @_ZN8BitInput8faddbitsEj(ptr noundef nonnull align 8 dereferenceable(24) %30, i32 noundef %31)
  %32 = load i32, ptr %7, align 4
  %33 = load i32, ptr %11, align 4
  %34 = icmp ne i32 %33, 0
  br i1 %34, label %35, label %42

35:                                               ; preds = %29
  %36 = load ptr, ptr %9, align 8
  %37 = load i32, ptr %11, align 4
  %38 = sub nsw i32 %37, 1
  %39 = sext i32 %38 to i64
  %40 = getelementptr inbounds i32, ptr %36, i64 %39
  %41 = load i32, ptr %40, align 4
  br label %43

42:                                               ; preds = %29
  br label %43

43:                                               ; preds = %42, %35
  %44 = phi i32 [ %41, %35 ], [ 0, %42 ]
  %45 = sub i32 %32, %44
  %46 = load i32, ptr %8, align 4
  %47 = sub i32 16, %46
  %48 = lshr i32 %45, %47
  %49 = load ptr, ptr %10, align 8
  %50 = load i32, ptr %8, align 4
  %51 = zext i32 %50 to i64
  %52 = getelementptr inbounds i32, ptr %49, i64 %51
  %53 = load i32, ptr %52, align 4
  %54 = add i32 %48, %53
  ret i32 %54
}

; Function Attrs: mustprogress uwtable
define void @_ZN6Unpack11GetFlagsBufEv(ptr noundef nonnull align 8 dereferenceable(59688) %0) #0 align 2 {
  %2 = alloca ptr, align 8
  %3 = alloca i32, align 4
  %4 = alloca i32, align 4
  %5 = alloca i32, align 4
  store ptr %0, ptr %2, align 8
  %6 = load ptr, ptr %2, align 8
  %7 = getelementptr inbounds %class.Unpack, ptr %6, i32 0, i32 1
  %8 = call noundef i32 @_ZN8BitInput8fgetbitsEv(ptr noundef nonnull align 8 dereferenceable(24) %7)
  %9 = call noundef i32 @_ZN6Unpack9DecodeNumEjjPjS0_(ptr noundef nonnull align 8 dereferenceable(59688) %6, i32 noundef %8, i32 noundef 5, ptr noundef @_ZL6DecHf2, ptr noundef @_ZL6PosHf2)
  store i32 %9, ptr %5, align 4
  %10 = load i32, ptr %5, align 4
  %11 = zext i32 %10 to i64
  %12 = icmp uge i64 %11, 256
  br i1 %12, label %13, label %14

13:                                               ; preds = %1
  br label %59

14:                                               ; preds = %1
  br label %15

15:                                               ; preds = %38, %14
  %16 = getelementptr inbounds %class.Unpack, ptr %6, i32 0, i32 28
  %17 = load i32, ptr %5, align 4
  %18 = zext i32 %17 to i64
  %19 = getelementptr inbounds [256 x i16], ptr %16, i64 0, i64 %18
  %20 = load i16, ptr %19, align 2
  %21 = zext i16 %20 to i32
  store i32 %21, ptr %3, align 4
  %22 = load i32, ptr %3, align 4
  %23 = lshr i32 %22, 8
  %24 = getelementptr inbounds %class.Unpack, ptr %6, i32 0, i32 32
  store i32 %23, ptr %24, align 4
  %25 = getelementptr inbounds %class.Unpack, ptr %6, i32 0, i32 31
  %26 = load i32, ptr %3, align 4
  %27 = add i32 %26, 1
  store i32 %27, ptr %3, align 4
  %28 = and i32 %26, 255
  %29 = zext i32 %28 to i64
  %30 = getelementptr inbounds [256 x i8], ptr %25, i64 0, i64 %29
  %31 = load i8, ptr %30, align 1
  %32 = add i8 %31, 1
  store i8 %32, ptr %30, align 1
  %33 = zext i8 %31 to i32
  store i32 %33, ptr %4, align 4
  %34 = load i32, ptr %3, align 4
  %35 = and i32 %34, 255
  %36 = icmp ne i32 %35, 0
  br i1 %36, label %37, label %38

37:                                               ; preds = %15
  br label %43

38:                                               ; preds = %15
  %39 = getelementptr inbounds %class.Unpack, ptr %6, i32 0, i32 28
  %40 = getelementptr inbounds [256 x i16], ptr %39, i64 0, i64 0
  %41 = getelementptr inbounds %class.Unpack, ptr %6, i32 0, i32 31
  %42 = getelementptr inbounds [256 x i8], ptr %41, i64 0, i64 0
  call void @_ZN6Unpack8CorrHuffEPtPh(ptr noundef nonnull align 8 dereferenceable(59688) %6, ptr noundef %40, ptr noundef %42)
  br label %15, !llvm.loop !45

43:                                               ; preds = %37
  %44 = getelementptr inbounds %class.Unpack, ptr %6, i32 0, i32 28
  %45 = load i32, ptr %4, align 4
  %46 = zext i32 %45 to i64
  %47 = getelementptr inbounds [256 x i16], ptr %44, i64 0, i64 %46
  %48 = load i16, ptr %47, align 2
  %49 = getelementptr inbounds %class.Unpack, ptr %6, i32 0, i32 28
  %50 = load i32, ptr %5, align 4
  %51 = zext i32 %50 to i64
  %52 = getelementptr inbounds [256 x i16], ptr %49, i64 0, i64 %51
  store i16 %48, ptr %52, align 2
  %53 = load i32, ptr %3, align 4
  %54 = trunc i32 %53 to i16
  %55 = getelementptr inbounds %class.Unpack, ptr %6, i32 0, i32 28
  %56 = load i32, ptr %4, align 4
  %57 = zext i32 %56 to i64
  %58 = getelementptr inbounds [256 x i16], ptr %55, i64 0, i64 %57
  store i16 %54, ptr %58, align 2
  br label %59

59:                                               ; preds = %43, %13
  ret void
}