; Function Attrs: mustprogress uwtable
define void @_ZN6Unpack11GetFlagsBufEv(ptr noundef nonnull align 8 dereferenceable(59688) %0) local_unnamed_addr #0 align 2 {
  %2 = getelementptr inbounds i8, ptr %0, i64 8
  %3 = tail call noundef i32 @_ZN8BitInput8fgetbitsEv(ptr noundef nonnull align 8 dereferenceable(24) %2)
  %4 = and i32 %3, 65520
  %.not18.i = icmp ult i32 %4, 4096
  br i1 %.not18.i, label %._crit_edge.thread.i, label %.lr.ph.i

._crit_edge.thread.i:                             ; preds = %1
  tail call void @_ZN8BitInput8faddbitsEj(ptr noundef nonnull align 8 dereferenceable(24) %2, i32 noundef 5)
  br label %_ZN6Unpack9DecodeNumEjjPjS0_.exit

.lr.ph.i:                                         ; preds = %1, %.lr.ph.i
  %indvars.iv.i = phi i64 [ %indvars.iv.next.i, %.lr.ph.i ], [ 0, %1 ]
  %.01419.i = phi i32 [ %5, %.lr.ph.i ], [ 5, %1 ]
  %5 = add i32 %.01419.i, 1
  %indvars.iv.next.i = add nuw nsw i64 %indvars.iv.i, 1
  %6 = getelementptr inbounds i32, ptr @_ZL6DecHf2, i64 %indvars.iv.next.i
  %7 = load i32, ptr %6, align 4
  %.not.i = icmp ugt i32 %7, %4
  br i1 %.not.i, label %._crit_edge.i, label %.lr.ph.i, !llvm.loop !49

._crit_edge.i:                                    ; preds = %.lr.ph.i
  %8 = getelementptr inbounds i32, ptr @_ZL6DecHf2, i64 %indvars.iv.next.i
  tail call void @_ZN8BitInput8faddbitsEj(ptr noundef nonnull align 8 dereferenceable(24) %2, i32 noundef %5)
  %9 = getelementptr i8, ptr %8, i64 -4
  %10 = load i32, ptr %9, align 4
  br label %_ZN6Unpack9DecodeNumEjjPjS0_.exit

_ZN6Unpack9DecodeNumEjjPjS0_.exit:                ; preds = %._crit_edge.thread.i, %._crit_edge.i
  %.014.lcssa27.i = phi i32 [ %5, %._crit_edge.i ], [ 5, %._crit_edge.thread.i ]
  %11 = phi i32 [ %10, %._crit_edge.i ], [ 0, %._crit_edge.thread.i ]
  %12 = sub i32 %4, %11
  %13 = sub i32 16, %.014.lcssa27.i
  %14 = lshr i32 %12, %13
  %15 = zext i32 %.014.lcssa27.i to i64
  %16 = getelementptr inbounds i32, ptr @_ZL6PosHf2, i64 %15
  %17 = load i32, ptr %16, align 4
  %18 = add i32 %14, %17
  %19 = icmp ugt i32 %18, 255
  br i1 %19, label %63, label %.preheader

.preheader:                                       ; preds = %_ZN6Unpack9DecodeNumEjjPjS0_.exit
  %20 = zext nneg i32 %18 to i64
  %21 = getelementptr inbounds i8, ptr %0, i64 21402
  %22 = getelementptr inbounds [256 x i16], ptr %21, i64 0, i64 %20
  %23 = getelementptr inbounds i8, ptr %0, i64 22684
  %24 = getelementptr inbounds i8, ptr %0, i64 22426
  %25 = load i16, ptr %22, align 2
  %26 = zext i16 %25 to i32
  %27 = lshr i32 %26, 8
  store i32 %27, ptr %23, align 4
  %28 = add nuw nsw i32 %26, 1
  %29 = and i32 %26, 255
  %30 = zext nneg i32 %29 to i64
  %31 = getelementptr inbounds [256 x i8], ptr %24, i64 0, i64 %30
  %32 = load i8, ptr %31, align 1
  %33 = add i8 %32, 1
  store i8 %33, ptr %31, align 1
  %34 = and i32 %28, 255
  %.not19 = icmp eq i32 %34, 0
  br i1 %.not19, label %.preheader.i, label %._crit_edge

.preheader.i:                                     ; preds = %.preheader, %.preheader.i.backedge
  %.01319.i = phi i32 [ %.01319.i.be, %.preheader.i.backedge ], [ 7, %.preheader ]
  %.01418.i = phi ptr [ %.01418.i.be, %.preheader.i.backedge ], [ %21, %.preheader ]
  %35 = trunc i32 %.01319.i to i16
  br label %36

36:                                               ; preds = %36, %.preheader.i
  %.017.i = phi i32 [ 0, %.preheader.i ], [ %40, %36 ]
  %.11516.i = phi ptr [ %.01418.i, %.preheader.i ], [ %41, %36 ]
  %37 = load i16, ptr %.11516.i, align 2
  %38 = and i16 %37, -256
  %39 = or i16 %38, %35
  store i16 %39, ptr %.11516.i, align 2
  %40 = add nuw nsw i32 %.017.i, 1
  %41 = getelementptr inbounds i8, ptr %.11516.i, i64 2
  %exitcond.not.i = icmp eq i32 %40, 32
  br i1 %exitcond.not.i, label %42, label %36, !llvm.loop !43

42:                                               ; preds = %36
  %43 = add nsw i32 %.01319.i, -1
  %.not.i9 = icmp eq i32 %.01319.i, 0
  br i1 %.not.i9, label %44, label %.preheader.i.backedge

.preheader.i.backedge:                            ; preds = %42, %_ZN6Unpack8CorrHuffEPtPh.exit
  %.01319.i.be = phi i32 [ %43, %42 ], [ 7, %_ZN6Unpack8CorrHuffEPtPh.exit ]
  %.01418.i.be = phi ptr [ %41, %42 ], [ %21, %_ZN6Unpack8CorrHuffEPtPh.exit ]
  br label %.preheader.i, !llvm.loop !50

44:                                               ; preds = %42
  tail call void @llvm.memset.p0.i64(ptr noundef nonnull align 2 dereferenceable(256) %24, i8 0, i64 256, i1 false)
  br label %45

45:                                               ; preds = %45, %44
  %indvars.iv.i10 = phi i64 [ 6, %44 ], [ %indvars.iv.next.i11, %45 ]
  %.1.tr.i = trunc i64 %indvars.iv.i10 to i8
  %46 = shl i8 %.1.tr.i, 5
  %47 = sub nuw nsw i8 -32, %46
  %48 = getelementptr inbounds i8, ptr %24, i64 %indvars.iv.i10
  store i8 %47, ptr %48, align 1
  %indvars.iv.next.i11 = add nsw i64 %indvars.iv.i10, -1
  %.not22.i = icmp eq i64 %indvars.iv.i10, 0
  br i1 %.not22.i, label %_ZN6Unpack8CorrHuffEPtPh.exit, label %45, !llvm.loop !45

_ZN6Unpack8CorrHuffEPtPh.exit:                    ; preds = %45
  %49 = load i16, ptr %22, align 2
  %50 = zext i16 %49 to i32
  %51 = lshr i32 %50, 8
  store i32 %51, ptr %23, align 4
  %52 = add nuw nsw i32 %50, 1
  %53 = and i32 %50, 255
  %54 = zext nneg i32 %53 to i64
  %55 = getelementptr inbounds [256 x i8], ptr %24, i64 0, i64 %54
  %56 = load i8, ptr %55, align 1
  %57 = add i8 %56, 1
  store i8 %57, ptr %55, align 1
  %58 = and i32 %52, 255
  %.not = icmp eq i32 %58, 0
  br i1 %.not, label %.preheader.i.backedge, label %._crit_edge

._crit_edge:                                      ; preds = %_ZN6Unpack8CorrHuffEPtPh.exit, %.preheader
  %.lcssa13 = phi i32 [ %28, %.preheader ], [ %52, %_ZN6Unpack8CorrHuffEPtPh.exit ]
  %.lcssa12 = phi i8 [ %32, %.preheader ], [ %56, %_ZN6Unpack8CorrHuffEPtPh.exit ]
  %59 = zext i8 %.lcssa12 to i64
  %60 = getelementptr inbounds [256 x i16], ptr %21, i64 0, i64 %59
  %61 = load i16, ptr %60, align 2
  store i16 %61, ptr %22, align 2
  %62 = trunc i32 %.lcssa13 to i16
  store i16 %62, ptr %60, align 2
  br label %63

63:                                               ; preds = %_ZN6Unpack9DecodeNumEjjPjS0_.exit, %._crit_edge
  ret void
}